target datalayout = "e-m:e-p270:32:32-p271:32:32-p272:64:64-i64:64-i128:128-f80:128-n8:16:32:64-S128"
target triple = "x86_64-unknown-linux-gnu"

%struct.rsa_meth_st = type { %struct.openssl_method_common_st, ptr, ptr, ptr, ptr, ptr, ptr, ptr, ptr, ptr, ptr, ptr, ptr, ptr, i32, ptr, ptr, ptr }
%struct.openssl_method_common_st = type { i32, i8 }
%struct.rsa_st = type { ptr, ptr, ptr, ptr, ptr, ptr, ptr, ptr, ptr, ptr, %struct.crypto_ex_data_st, i32, i32, %union.crypto_mutex_st, ptr, ptr, ptr, i32, ptr, ptr }
%struct.crypto_ex_data_st = type { ptr }
%union.crypto_mutex_st = type { double, [48 x i8] }

@.str = private unnamed_addr constant [120 x i8] c"generated/home/dtcxzyw/WorkSpace/Projects/compilers/llvm-opt-benchmark/bench/libquic/libquic/boringssl/crypto/rsa/rsa.c\00", align 1

; Function Attrs: nounwind uwtable
define hidden i32 @RSA_sign_raw(ptr noundef %rsa, ptr noundef %out_len, ptr noundef %out, i64 noundef %max_out, ptr noundef %in, i64 noundef %in_len, i32 noundef %padding) #0 {
entry:
  %retval = alloca i32, align 4
  %rsa.addr = alloca ptr, align 8
  %out_len.addr = alloca ptr, align 8
  %out.addr = alloca ptr, align 8
  %max_out.addr = alloca i64, align 8
  %in.addr = alloca ptr, align 8
  %in_len.addr = alloca i64, align 8
  %padding.addr = alloca i32, align 4
  store ptr %rsa, ptr %rsa.addr, align 8
  store ptr %out_len, ptr %out_len.addr, align 8
  store ptr %out, ptr %out.addr, align 8
  store i64 %max_out, ptr %max_out.addr, align 8
  store ptr %in, ptr %in.addr, align 8
  store i64 %in_len, ptr %in_len.addr, align 8
  store i32 %padding, ptr %padding.addr, align 4
  %0 = load ptr, ptr %rsa.addr, align 8
  %meth = getelementptr inbounds %struct.rsa_st, ptr %0, i32 0, i32 0
  %1 = load ptr, ptr %meth, align 8
  %sign_raw = getelementptr inbounds %struct.rsa_meth_st, ptr %1, i32 0, i32 8
  %2 = load ptr, ptr %sign_raw, align 8
  %tobool = icmp ne ptr %2, null
  br i1 %tobool, label %if.then, label %if.end

if.then:                                          ; preds = %entry
  %3 = load ptr, ptr %rsa.addr, align 8
  %meth1 = getelementptr inbounds %struct.rsa_st, ptr %3, i32 0, i32 0
  %4 = load ptr, ptr %meth1, align 8
  %sign_raw2 = getelementptr inbounds %struct.rsa_meth_st, ptr %4, i32 0, i32 8
  %5 = load ptr, ptr %sign_raw2, align 8
  %6 = load ptr, ptr %rsa.addr, align 8
  %7 = load ptr, ptr %out_len.addr, align 8
  %8 = load ptr, ptr %out.addr, align 8
  %9 = load i64, ptr %max_out.addr, align 8
  %10 = load ptr, ptr %in.addr, align 8
  %11 = load i64, ptr %in_len.addr, align 8
  %12 = load i32, ptr %padding.addr, align 4
  %call = call i32 %5(ptr noundef %6, ptr noundef %7, ptr noundef %8, i64 noundef %9, ptr noundef %10, i64 noundef %11, i32 noundef %12)
  store i32 %call, ptr %retval, align 4
  br label %return

if.end:                                           ; preds = %entry
  %13 = load ptr, ptr %rsa.addr, align 8
  %14 = load ptr, ptr %out_len.addr, align 8
  %15 = load ptr, ptr %out.addr, align 8
  %16 = load i64, ptr %max_out.addr, align 8
  %17 = load ptr, ptr %in.addr, align 8
  %18 = load i64, ptr %in_len.addr, align 8
  %19 = load i32, ptr %padding.addr, align 4
  %call3 = call i32 @rsa_default_sign_raw(ptr noundef %13, ptr noundef %14, ptr noundef %15, i64 noundef %16, ptr noundef %17, i64 noundef %18, i32 noundef %19)
  store i32 %call3, ptr %retval, align 4
  br label %return

return:                                           ; preds = %if.end, %if.then
  %20 = load i32, ptr %retval, align 4
  ret i32 %20
}

; Function Attrs: nounwind uwtable
define hidden i32 @RSA_size(ptr noundef %rsa) #0 {
entry:
  %retval = alloca i32, align 4
  %rsa.addr = alloca ptr, align 8
  store ptr %rsa, ptr %rsa.addr, align 8
  %0 = load ptr, ptr %rsa.addr, align 8
  %meth = getelementptr inbounds %struct.rsa_st, ptr %0, i32 0, i32 0
  %1 = load ptr, ptr %meth, align 8
  %size = getelementptr inbounds %struct.rsa_meth_st, ptr %1, i32 0, i32 4
  %2 = load ptr, ptr %size, align 8
  %tobool = icmp ne ptr %2, null
  br i1 %tobool, label %if.then, label %if.end

if.then:                                          ; preds = %entry
  %3 = load ptr, ptr %rsa.addr, align 8
  %meth1 = getelementptr inbounds %struct.rsa_st, ptr %3, i32 0, i32 0
  %4 = load ptr, ptr %meth1, align 8
  %size2 = getelementptr inbounds %struct.rsa_meth_st, ptr %4, i32 0, i32 4
  %5 = load ptr, ptr %size2, align 8
  %6 = load ptr, ptr %rsa.addr, align 8
  %call = call i64 %5(ptr noundef %6)
  %conv = trunc i64 %call to i32
  store i32 %conv, ptr %retval, align 4
  br label %return

if.end:                                           ; preds = %entry
  %7 = load ptr, ptr %rsa.addr, align 8
  %call3 = call i64 @rsa_default_size(ptr noundef %7)
  %conv4 = trunc i64 %call3 to i32
  store i32 %conv4, ptr %retval, align 4
  br label %return

return:                                           ; preds = %if.end, %if.then
  %8 = load i32, ptr %retval, align 4
  ret i32 %8
}

; Function Attrs: nounwind uwtable
define hidden i32 @RSA_sign(i32 noundef %hash_nid, ptr noundef %in, i32 noundef %in_len, ptr noundef %out, ptr noundef %out_len, ptr noundef %rsa) #0 {
entry:
  %retval = alloca i32, align 4
  %hash_nid.addr = alloca i32, align 4
  %in.addr = alloca ptr, align 8
  %in_len.addr = alloca i32, align 4
  %out.addr = alloca ptr, align 8
  %out_len.addr = alloca ptr, align 8
  %rsa.addr = alloca ptr, align 8
  %rsa_size = alloca i32, align 4
  %ret = alloca i32, align 4
  %signed_msg = alloca ptr, align 8
  %signed_msg_len = alloca i64, align 8
  %signed_msg_is_alloced = alloca i32, align 4
  %size_t_out_len = alloca i64, align 8
  store i32 %hash_nid, ptr %hash_nid.addr, align 4
  store ptr %in, ptr %in.addr, align 8
  store i32 %in_len, ptr %in_len.addr, align 4
  store ptr %out, ptr %out.addr, align 8
  store ptr %out_len, ptr %out_len.addr, align 8
  store ptr %rsa, ptr %rsa.addr, align 8
  %0 = load ptr, ptr %rsa.addr, align 8
  %call = call i32 @RSA_size(ptr noundef %0)
  store i32 %call, ptr %rsa_size, align 4
  store i32 0, ptr %ret, align 4
  store i32 0, ptr %signed_msg_is_alloced, align 4
  %1 = load ptr, ptr %rsa.addr, align 8
  %meth = getelementptr inbounds %struct.rsa_st, ptr %1, i32 0, i32 0
  %2 = load ptr, ptr %meth, align 8
  %sign = getelementptr inbounds %struct.rsa_meth_st, ptr %2, i32 0, i32 5
  %3 = load ptr, ptr %sign, align 8
  %tobool = icmp ne ptr %3, null
  br i1 %tobool, label %if.then, label %if.end

if.then:                                          ; preds = %entry
  %4 = load ptr, ptr %rsa.addr, align 8
  %meth1 = getelementptr inbounds %struct.rsa_st, ptr %4, i32 0, i32 0
  %5 = load ptr, ptr %meth1, align 8
  %sign2 = getelementptr inbounds %struct.rsa_meth_st, ptr %5, i32 0, i32 5
  %6 = load ptr, ptr %sign2, align 8
  %7 = load i32, ptr %hash_nid.addr, align 4
  %8 = load ptr, ptr %in.addr, align 8
  %9 = load i32, ptr %in_len.addr, align 4
  %10 = load ptr, ptr %out.addr, align 8
  %11 = load ptr, ptr %out_len.addr, align 8
  %12 = load ptr, ptr %rsa.addr, align 8
  %call3 = call i32 %6(i32 noundef %7, ptr noundef %8, i32 noundef %9, ptr noundef %10, ptr noundef %11, ptr noundef %12)
  store i32 %call3, ptr %retval, align 4
  br label %return

if.end:                                           ; preds = %entry
  %13 = load i32, ptr %hash_nid.addr, align 4
  %14 = load ptr, ptr %in.addr, align 8
  %15 = load i32, ptr %in_len.addr, align 4
  %conv = zext i32 %15 to i64
  %call4 = call i32 @RSA_add_pkcs1_prefix(ptr noundef %signed_msg, ptr noundef %signed_msg_len, ptr noundef %signed_msg_is_alloced, i32 noundef %13, ptr noundef %14, i64 noundef %conv)
  %tobool5 = icmp ne i32 %call4, 0
  br i1 %tobool5, label %if.end7, label %if.then6

if.then6:                                         ; preds = %if.end
  store i32 0, ptr %retval, align 4
  br label %return

if.end7:                                          ; preds = %if.end
  %16 = load i32, ptr %rsa_size, align 4
  %cmp = icmp ult i32 %16, 11
  br i1 %cmp, label %if.then12, label %lor.lhs.false

lor.lhs.false:                                    ; preds = %if.end7
  %17 = load i64, ptr %signed_msg_len, align 8
  %18 = load i32, ptr %rsa_size, align 4
  %sub = sub i32 %18, 11
  %conv9 = zext i32 %sub to i64
  %cmp10 = icmp ugt i64 %17, %conv9
  br i1 %cmp10, label %if.then12, label %if.end13

if.then12:                                        ; preds = %lor.lhs.false, %if.end7
  call void @ERR_put_error(i32 noundef 4, i32 noundef 0, i32 noundef 118, ptr noundef @.str, i32 noundef 447)
  br label %finish

if.end13:                                         ; preds = %lor.lhs.false
  %19 = load ptr, ptr %rsa.addr, align 8
  %20 = load ptr, ptr %out.addr, align 8
  %21 = load i32, ptr %rsa_size, align 4
  %conv14 = zext i32 %21 to i64
  %22 = load ptr, ptr %signed_msg, align 8
  %23 = load i64, ptr %signed_msg_len, align 8
  %call15 = call i32 @RSA_sign_raw(ptr noundef %19, ptr noundef %size_t_out_len, ptr noundef %20, i64 noundef %conv14, ptr noundef %22, i64 noundef %23, i32 noundef 1)
  %tobool16 = icmp ne i32 %call15, 0
  br i1 %tobool16, label %if.then17, label %if.end19

if.then17:                                        ; preds = %if.end13
  %24 = load i64, ptr %size_t_out_len, align 8
  %conv18 = trunc i64 %24 to i32
  %25 = load ptr, ptr %out_len.addr, align 8
  store i32 %conv18, ptr %25, align 4
  store i32 1, ptr %ret, align 4
  br label %if.end19

if.end19:                                         ; preds = %if.then17, %if.end13
  br label %finish

finish:                                           ; preds = %if.end19, %if.then12
  %26 = load i32, ptr %signed_msg_is_alloced, align 4
  %tobool20 = icmp ne i32 %26, 0
  br i1 %tobool20, label %if.then21, label %if.end22

if.then21:                                        ; preds = %finish
  %27 = load ptr, ptr %signed_msg, align 8
  call void @free(ptr noundef %27) #8
  br label %if.end22

if.end22:                                         ; preds = %if.then21, %finish
  %28 = load i32, ptr %ret, align 4
  store i32 %28, ptr %retval, align 4
  br label %return

return:                                           ; preds = %if.end22, %if.then6, %if.then
  %29 = load i32, ptr %retval, align 4
  ret i32 %29
}