; Function Attrs: nounwind uwtable
define hidden i32 @RSA_sign(i32 noundef %hash_nid, ptr noundef %in, i32 noundef %in_len, ptr noundef %out, ptr noundef %out_len, ptr noundef %rsa) local_unnamed_addr #0 {
entry:
  %signed_msg = alloca ptr, align 8
  %signed_msg_len = alloca i64, align 8
  %signed_msg_is_alloced = alloca i32, align 4
  %size_t_out_len = alloca i64, align 8
  %0 = load ptr, ptr %rsa, align 8
  %size.i = getelementptr inbounds nuw i8, ptr %0, i64 32
  %1 = load ptr, ptr %size.i, align 8
  %tobool.not.i = icmp eq ptr %1, null
  br i1 %tobool.not.i, label %if.end.i, label %if.then.i

if.then.i:                                        ; preds = %entry
  %call.i = tail call i64 %1(ptr noundef nonnull %rsa) #9
  br label %RSA_size.exit

if.end.i:                                         ; preds = %entry
  %call3.i = tail call i64 @rsa_default_size(ptr noundef nonnull %rsa) #9
  br label %RSA_size.exit

RSA_size.exit:                                    ; preds = %if.then.i, %if.end.i
  %retval.0.in.i = phi i64 [ %call.i, %if.then.i ], [ %call3.i, %if.end.i ]
  %retval.0.i = trunc i64 %retval.0.in.i to i32
  store i32 0, ptr %signed_msg_is_alloced, align 4
  %2 = load ptr, ptr %rsa, align 8
  %sign = getelementptr inbounds nuw i8, ptr %2, i64 40
  %3 = load ptr, ptr %sign, align 8
  %tobool.not = icmp eq ptr %3, null
  br i1 %tobool.not, label %if.end, label %if.then

if.then:                                          ; preds = %RSA_size.exit
  %call3 = tail call i32 %3(i32 noundef %hash_nid, ptr noundef %in, i32 noundef %in_len, ptr noundef %out, ptr noundef %out_len, ptr noundef nonnull %rsa) #9
  br label %return

if.end:                                           ; preds = %RSA_size.exit
  %conv = zext i32 %in_len to i64
  %call4 = call i32 @RSA_add_pkcs1_prefix(ptr noundef nonnull %signed_msg, ptr noundef nonnull %signed_msg_len, ptr noundef nonnull %signed_msg_is_alloced, i32 noundef %hash_nid, ptr noundef %in, i64 noundef %conv)
  %tobool5.not = icmp eq i32 %call4, 0
  br i1 %tobool5.not, label %return, label %if.end7

if.end7:                                          ; preds = %if.end
  %cmp = icmp ult i32 %retval.0.i, 11
  br i1 %cmp, label %if.then12, label %lor.lhs.false

lor.lhs.false:                                    ; preds = %if.end7
  %4 = load i64, ptr %signed_msg_len, align 8
  %sub = add i64 %retval.0.in.i, 4294967285
  %conv9 = and i64 %sub, 4294967295
  %cmp10 = icmp ugt i64 %4, %conv9
  br i1 %cmp10, label %if.then12, label %if.end13

if.then12:                                        ; preds = %lor.lhs.false, %if.end7
  tail call void @ERR_put_error(i32 noundef 4, i32 noundef 0, i32 noundef 118, ptr noundef nonnull @.str, i32 noundef 447) #9
  br label %finish

if.end13:                                         ; preds = %lor.lhs.false
  %conv14 = and i64 %retval.0.in.i, 4294967295
  %5 = load ptr, ptr %signed_msg, align 8
  %6 = load ptr, ptr %rsa, align 8
  %sign_raw.i = getelementptr inbounds nuw i8, ptr %6, i64 64
  %7 = load ptr, ptr %sign_raw.i, align 8
  %tobool.not.i13 = icmp eq ptr %7, null
  br i1 %tobool.not.i13, label %if.end.i17, label %if.then.i14

if.then.i14:                                      ; preds = %if.end13
  %call.i15 = call i32 %7(ptr noundef nonnull %rsa, ptr noundef nonnull %size_t_out_len, ptr noundef %out, i64 noundef %conv14, ptr noundef %5, i64 noundef %4, i32 noundef 1) #9
  br label %RSA_sign_raw.exit

if.end.i17:                                       ; preds = %if.end13
  %call3.i18 = call i32 @rsa_default_sign_raw(ptr noundef nonnull %rsa, ptr noundef nonnull %size_t_out_len, ptr noundef %out, i64 noundef %conv14, ptr noundef %5, i64 noundef %4, i32 noundef 1) #9
  br label %RSA_sign_raw.exit

RSA_sign_raw.exit:                                ; preds = %if.then.i14, %if.end.i17
  %retval.0.i16 = phi i32 [ %call.i15, %if.then.i14 ], [ %call3.i18, %if.end.i17 ]
  %tobool16.not = icmp eq i32 %retval.0.i16, 0
  br i1 %tobool16.not, label %finish, label %if.then17

if.then17:                                        ; preds = %RSA_sign_raw.exit
  %8 = load i64, ptr %size_t_out_len, align 8
  %conv18 = trunc i64 %8 to i32
  store i32 %conv18, ptr %out_len, align 4
  br label %finish

finish:                                           ; preds = %RSA_sign_raw.exit, %if.then17, %if.then12
  %ret.0 = phi i32 [ 0, %if.then12 ], [ 1, %if.then17 ], [ 0, %RSA_sign_raw.exit ]
  %9 = load i32, ptr %signed_msg_is_alloced, align 4
  %tobool20.not = icmp eq i32 %9, 0
  br i1 %tobool20.not, label %return, label %if.then21

if.then21:                                        ; preds = %finish
  %10 = load ptr, ptr %signed_msg, align 8
  call void @free(ptr noundef %10) #9
  br label %return

return:                                           ; preds = %finish, %if.then21, %if.end, %if.then
  %retval.0 = phi i32 [ %call3, %if.then ], [ 0, %if.end ], [ %ret.0, %if.then21 ], [ %ret.0, %finish ]
  ret i32 %retval.0
}